target datalayout = "e-m:e-p270:32:32-p271:32:32-p272:64:64-i64:64-i128:128-f80:128-n8:16:32:64-S128"
target triple = "x86_64-pc-linux-gnu"

%struct.ident_t = type { i32, i32, i32, i32, ptr }

@1 = private unnamed_addr constant %struct.ident_t { i32 0, i32 514, i32 0, i32 22, ptr @0 }, align 8
@2 = private unnamed_addr constant %struct.ident_t { i32 0, i32 66, i32 0, i32 22, ptr @0 }, align 8

; Function Attrs: inlinehint nounwind uwtable
define internal i32 @extractBit(i32 noundef %0, i64 noundef %1) #7 {
  %3 = alloca i32, align 4
  %4 = alloca i64, align 8
  store i32 %0, ptr %3, align 4, !tbaa !8
  store i64 %1, ptr %4, align 8, !tbaa !4
  %5 = load i64, ptr %4, align 8, !tbaa !4
  %6 = load i32, ptr %3, align 4, !tbaa !8
  %7 = zext i32 %6 to i64
  %8 = shl i64 1, %7
  %9 = and i64 %5, %8
  %10 = load i32, ptr %3, align 4, !tbaa !8
  %11 = zext i32 %10 to i64
  %12 = ashr i64 %9, %11
  %13 = trunc i64 %12 to i32
  ret i32 %13
}

; Function Attrs: alwaysinline norecurse nounwind uwtable
define internal void @statevec_calcProbOfAllOutcomesLocal.omp_outlined.7(ptr noalias noundef %0, ptr noalias noundef %1, ptr noundef nonnull align 8 dereferenceable(8) %2, ptr noundef nonnull align 4 dereferenceable(4) %3, ptr noundef nonnull align 8 dereferenceable(8) %4, ptr noundef nonnull align 8 dereferenceable(8) %5, ptr noundef nonnull align 8 dereferenceable(8) %6, ptr noundef nonnull align 8 dereferenceable(8) %7, ptr noundef nonnull align 8 dereferenceable(8) %8) #2 {
  %10 = alloca ptr, align 8
  %11 = alloca ptr, align 8
  %12 = alloca ptr, align 8
  %13 = alloca ptr, align 8
  %14 = alloca ptr, align 8
  %15 = alloca ptr, align 8
  %16 = alloca ptr, align 8
  %17 = alloca ptr, align 8
  %18 = alloca ptr, align 8
  %19 = alloca i32, align 4
  %20 = alloca i64, align 8
  %21 = alloca double, align 8
  %22 = alloca i64, align 8
  %23 = alloca i64, align 8
  %24 = alloca i64, align 8
  %25 = alloca i64, align 8
  %26 = alloca i64, align 8
  %27 = alloca i64, align 8
  %28 = alloca i64, align 8
  %29 = alloca i32, align 4
  %30 = alloca i64, align 8
  store ptr %0, ptr %10, align 8, !tbaa !19
  store ptr %1, ptr %11, align 8, !tbaa !19
  store ptr %2, ptr %12, align 8, !tbaa !21
  store ptr %3, ptr %13, align 8, !tbaa !19
  store ptr %4, ptr %14, align 8, !tbaa !53
  store ptr %5, ptr %15, align 8, !tbaa !21
  store ptr %6, ptr %16, align 8, !tbaa !33
  store ptr %7, ptr %17, align 8, !tbaa !33
  store ptr %8, ptr %18, align 8, !tbaa !33
  %31 = load ptr, ptr %12, align 8, !tbaa !21
  %32 = load ptr, ptr %13, align 8, !tbaa !19
  %33 = load ptr, ptr %14, align 8, !tbaa !53
  %34 = load ptr, ptr %15, align 8, !tbaa !21
  %35 = load ptr, ptr %16, align 8, !tbaa !33
  %36 = load ptr, ptr %17, align 8, !tbaa !33
  %37 = load ptr, ptr %18, align 8, !tbaa !33
  call void @llvm.lifetime.start.p0(i64 4, ptr %19) #3
  call void @llvm.lifetime.start.p0(i64 8, ptr %20) #3
  call void @llvm.lifetime.start.p0(i64 8, ptr %21) #3
  call void @llvm.lifetime.start.p0(i64 8, ptr %22) #3
  call void @llvm.lifetime.start.p0(i64 8, ptr %23) #3
  %38 = load i64, ptr %31, align 8, !tbaa !4
  store i64 %38, ptr %23, align 8, !tbaa !4
  call void @llvm.lifetime.start.p0(i64 8, ptr %24) #3
  %39 = load i64, ptr %23, align 8, !tbaa !4
  %40 = sub nsw i64 %39, 0
  %41 = sdiv i64 %40, 1
  %42 = sub nsw i64 %41, 1
  store i64 %42, ptr %24, align 8, !tbaa !4
  call void @llvm.lifetime.start.p0(i64 8, ptr %25) #3
  store i64 0, ptr %25, align 8, !tbaa !4
  call void @llvm.lifetime.end.p0(i64 8, ptr %25) #3
  %43 = load i64, ptr %23, align 8, !tbaa !4
  %44 = icmp slt i64 0, %43
  br i1 %44, label %45, label %124

45:                                               ; preds = %9
  call void @llvm.lifetime.start.p0(i64 8, ptr %26) #3
  store i64 0, ptr %26, align 8, !tbaa !4
  call void @llvm.lifetime.start.p0(i64 8, ptr %27) #3
  %46 = load i64, ptr %24, align 8, !tbaa !4
  store i64 %46, ptr %27, align 8, !tbaa !4
  call void @llvm.lifetime.start.p0(i64 8, ptr %28) #3
  store i64 1, ptr %28, align 8, !tbaa !4
  call void @llvm.lifetime.start.p0(i64 4, ptr %29) #3
  store i32 0, ptr %29, align 4, !tbaa !8
  call void @llvm.lifetime.start.p0(i64 8, ptr %30) #3
  %47 = load ptr, ptr %10, align 8
  %48 = load i32, ptr %47, align 4, !tbaa !8
  call void @__kmpc_for_static_init_8(ptr @1, i32 %48, i32 34, ptr %29, ptr %26, ptr %27, ptr %28, i64 1, i64 1)
  %49 = load i64, ptr %27, align 8, !tbaa !4
  %50 = load i64, ptr %24, align 8, !tbaa !4
  %51 = icmp sgt i64 %49, %50
  br i1 %51, label %52, label %54

52:                                               ; preds = %45
  %53 = load i64, ptr %24, align 8, !tbaa !4
  br label %56

54:                                               ; preds = %45
  %55 = load i64, ptr %27, align 8, !tbaa !4
  br label %56

56:                                               ; preds = %54, %52
  %57 = phi i64 [ %53, %52 ], [ %55, %54 ]
  store i64 %57, ptr %27, align 8, !tbaa !4
  %58 = load i64, ptr %26, align 8, !tbaa !4
  store i64 %58, ptr %22, align 8, !tbaa !4
  br label %59

59:                                               ; preds = %117, %56
  %60 = load i64, ptr %22, align 8, !tbaa !4
  %61 = load i64, ptr %27, align 8, !tbaa !4
  %62 = icmp sle i64 %60, %61
  br i1 %62, label %64, label %63

63:                                               ; preds = %59
  br label %120

64:                                               ; preds = %59
  %65 = load i64, ptr %22, align 8, !tbaa !4
  %66 = mul nsw i64 %65, 1
  %67 = add nsw i64 0, %66
  store i64 %67, ptr %30, align 8, !tbaa !4
  store i64 0, ptr %20, align 8, !tbaa !4
  store i32 0, ptr %19, align 4, !tbaa !8
  br label %68

68:                                               ; preds = %89, %64
  %69 = load i32, ptr %19, align 4, !tbaa !8
  %70 = load i32, ptr %32, align 4, !tbaa !8
  %71 = icmp slt i32 %69, %70
  br i1 %71, label %72, label %92

72:                                               ; preds = %68
  %73 = load ptr, ptr %33, align 8, !tbaa !19
  %74 = load i32, ptr %19, align 4, !tbaa !8
  %75 = sext i32 %74 to i64
  %76 = getelementptr inbounds i32, ptr %73, i64 %75
  %77 = load i32, ptr %76, align 4, !tbaa !8
  %78 = load i64, ptr %30, align 8, !tbaa !4
  %79 = load i64, ptr %34, align 8, !tbaa !4
  %80 = add nsw i64 %78, %79
  %81 = call i32 @extractBit(i32 noundef %77, i64 noundef %80)
  %82 = sext i32 %81 to i64
  %83 = load i32, ptr %19, align 4, !tbaa !8
  %84 = zext i32 %83 to i64
  %85 = shl i64 1, %84
  %86 = mul nsw i64 %82, %85
  %87 = load i64, ptr %20, align 8, !tbaa !4
  %88 = add nsw i64 %87, %86
  store i64 %88, ptr %20, align 8, !tbaa !4
  br label %89

89:                                               ; preds = %72
  %90 = load i32, ptr %19, align 4, !tbaa !8
  %91 = add nsw i32 %90, 1
  store i32 %91, ptr %19, align 4, !tbaa !8
  br label %68

92:                                               ; preds = %68
  %93 = load ptr, ptr %35, align 8, !tbaa !25
  %94 = load i64, ptr %30, align 8, !tbaa !4
  %95 = getelementptr inbounds double, ptr %93, i64 %94
  %96 = load double, ptr %95, align 8, !tbaa !10
  %97 = load ptr, ptr %35, align 8, !tbaa !25
  %98 = load i64, ptr %30, align 8, !tbaa !4
  %99 = getelementptr inbounds double, ptr %97, i64 %98
  %100 = load double, ptr %99, align 8, !tbaa !10
  %101 = load ptr, ptr %36, align 8, !tbaa !25
  %102 = load i64, ptr %30, align 8, !tbaa !4
  %103 = getelementptr inbounds double, ptr %101, i64 %102
  %104 = load double, ptr %103, align 8, !tbaa !10
  %105 = load ptr, ptr %36, align 8, !tbaa !25
  %106 = load i64, ptr %30, align 8, !tbaa !4
  %107 = getelementptr inbounds double, ptr %105, i64 %106
  %108 = load double, ptr %107, align 8, !tbaa !10
  %109 = fmul double %104, %108
  %110 = call double @llvm.fmuladd.f64(double %96, double %100, double %109)
  store double %110, ptr %21, align 8, !tbaa !10
  %111 = load ptr, ptr %37, align 8, !tbaa !25
  %112 = load i64, ptr %20, align 8, !tbaa !4
  %113 = getelementptr inbounds double, ptr %111, i64 %112
  %114 = load double, ptr %21, align 8, !tbaa !10
  %115 = atomicrmw fadd ptr %113, double %114 monotonic, align 8
  br label %116

116:                                              ; preds = %92
  br label %117

117:                                              ; preds = %116
  %118 = load i64, ptr %22, align 8, !tbaa !4
  %119 = add nsw i64 %118, 1
  store i64 %119, ptr %22, align 8, !tbaa !4
  br label %59

120:                                              ; preds = %63
  br label %121

121:                                              ; preds = %120
  %122 = load ptr, ptr %10, align 8
  %123 = load i32, ptr %122, align 4, !tbaa !8
  call void @__kmpc_for_static_fini(ptr @1, i32 %123)
  call void @llvm.lifetime.end.p0(i64 8, ptr %30) #3
  call void @llvm.lifetime.end.p0(i64 4, ptr %29) #3
  call void @llvm.lifetime.end.p0(i64 8, ptr %28) #3
  call void @llvm.lifetime.end.p0(i64 8, ptr %27) #3
  call void @llvm.lifetime.end.p0(i64 8, ptr %26) #3
  br label %124

124:                                              ; preds = %121, %9
  call void @llvm.lifetime.end.p0(i64 8, ptr %24) #3
  call void @llvm.lifetime.end.p0(i64 8, ptr %23) #3
  call void @llvm.lifetime.end.p0(i64 8, ptr %22) #3
  %125 = load ptr, ptr %10, align 8
  %126 = load i32, ptr %125, align 4, !tbaa !8
  call void @__kmpc_barrier(ptr @2, i32 %126)
  call void @llvm.lifetime.end.p0(i64 8, ptr %21) #3
  call void @llvm.lifetime.end.p0(i64 8, ptr %20) #3
  call void @llvm.lifetime.end.p0(i64 4, ptr %19) #3
  ret void
}