; Function Attrs: alwaysinline norecurse nounwind uwtable
define internal void @statevec_calcProbOfAllOutcomesLocal.omp_outlined.7(ptr noalias noundef readonly captures(none) %0, ptr noalias readnone captures(none) %1, ptr noundef nonnull readonly align 8 captures(none) dereferenceable(8) %2, ptr noundef nonnull readonly align 4 captures(none) dereferenceable(4) %3, ptr noundef nonnull readonly align 8 captures(none) dereferenceable(8) %4, ptr noundef nonnull readonly align 8 captures(none) dereferenceable(8) %5, ptr noundef nonnull readonly align 8 captures(none) dereferenceable(8) %6, ptr noundef nonnull readonly align 8 captures(none) dereferenceable(8) %7, ptr noundef nonnull readonly align 8 captures(none) dereferenceable(8) %8) #3 {
  %10 = alloca i64, align 8
  %11 = alloca i64, align 8
  %12 = alloca i64, align 8
  %13 = alloca i32, align 4
  %14 = load i64, ptr %2, align 8, !tbaa !16
  %15 = icmp sgt i64 %14, 0
  %.pre = load i32, ptr %0, align 4, !tbaa !18
  br i1 %15, label %16, label %49

16:                                               ; preds = %9
  %17 = add nsw i64 %14, -1
  call void @llvm.lifetime.start.p0(i64 8, ptr nonnull %10) #4
  store i64 0, ptr %10, align 8, !tbaa !16
  call void @llvm.lifetime.start.p0(i64 8, ptr nonnull %11) #4
  store i64 %17, ptr %11, align 8, !tbaa !16
  call void @llvm.lifetime.start.p0(i64 8, ptr nonnull %12) #4
  store i64 1, ptr %12, align 8, !tbaa !16
  call void @llvm.lifetime.start.p0(i64 4, ptr nonnull %13) #4
  store i32 0, ptr %13, align 4, !tbaa !18
  call void @__kmpc_for_static_init_8(ptr nonnull @1, i32 %.pre, i32 34, ptr nonnull %13, ptr nonnull %10, ptr nonnull %11, ptr nonnull %12, i64 1, i64 1)
  %18 = load i64, ptr %11, align 8, !tbaa !16
  %19 = call i64 @llvm.smin.i64(i64 %18, i64 %17)
  store i64 %19, ptr %11, align 8, !tbaa !16
  %20 = load i64, ptr %10, align 8, !tbaa !16
  %.not33 = icmp sgt i64 %20, %19
  br i1 %.not33, label %._crit_edge35, label %.preheader

.preheader:                                       ; preds = %16, %._crit_edge
  %.03034 = phi i64 [ %47, %._crit_edge ], [ %20, %16 ]
  %21 = load i32, ptr %3, align 4, !tbaa !18
  %22 = icmp sgt i32 %21, 0
  br i1 %22, label %.lr.ph, label %._crit_edge

.lr.ph:                                           ; preds = %.preheader
  %23 = load ptr, ptr %4, align 8, !tbaa !35
  %24 = load i64, ptr %5, align 8, !tbaa !16
  %25 = add nsw i64 %24, %.03034
  %wide.trip.count = zext nneg i32 %21 to i64
  br label %26

26:                                               ; preds = %.lr.ph, %26
  %indvars.iv = phi i64 [ 0, %.lr.ph ], [ %indvars.iv.next, %26 ]
  %.02931 = phi i64 [ 0, %.lr.ph ], [ %35, %26 ]
  %27 = getelementptr inbounds nuw i32, ptr %23, i64 %indvars.iv
  %28 = load i32, ptr %27, align 4, !tbaa !18
  %29 = zext i32 %28 to i64
  %30 = shl nuw i64 1, %29
  %31 = and i64 %30, %25
  %32 = ashr i64 %31, %29
  %sext = shl i64 %32, 32
  %33 = ashr exact i64 %sext, 32
  %34 = shl i64 %33, %indvars.iv
  %35 = add nsw i64 %34, %.02931
  %indvars.iv.next = add nuw nsw i64 %indvars.iv, 1
  %exitcond.not = icmp eq i64 %indvars.iv.next, %wide.trip.count
  br i1 %exitcond.not, label %._crit_edge, label %26

._crit_edge:                                      ; preds = %26, %.preheader
  %.029.lcssa = phi i64 [ 0, %.preheader ], [ %35, %26 ]
  %36 = load ptr, ptr %6, align 8, !tbaa !26
  %37 = getelementptr inbounds double, ptr %36, i64 %.03034
  %38 = load double, ptr %37, align 8, !tbaa !4
  %39 = load ptr, ptr %7, align 8, !tbaa !26
  %40 = getelementptr inbounds double, ptr %39, i64 %.03034
  %41 = load double, ptr %40, align 8, !tbaa !4
  %42 = fmul double %41, %41
  %43 = call double @llvm.fmuladd.f64(double %38, double %38, double %42)
  %44 = load ptr, ptr %8, align 8, !tbaa !26
  %45 = getelementptr inbounds double, ptr %44, i64 %.029.lcssa
  %46 = atomicrmw fadd ptr %45, double %43 monotonic, align 8
  %47 = add nsw i64 %.03034, 1
  %48 = load i64, ptr %11, align 8, !tbaa !16
  %.not.not = icmp slt i64 %.03034, %48
  br i1 %.not.not, label %.preheader, label %._crit_edge35

._crit_edge35:                                    ; preds = %._crit_edge, %16
  call void @__kmpc_for_static_fini(ptr nonnull @1, i32 %.pre)
  call void @llvm.lifetime.end.p0(i64 4, ptr nonnull %13) #4
  call void @llvm.lifetime.end.p0(i64 8, ptr nonnull %12) #4
  call void @llvm.lifetime.end.p0(i64 8, ptr nonnull %11) #4
  call void @llvm.lifetime.end.p0(i64 8, ptr nonnull %10) #4
  br label %49

49:                                               ; preds = %._crit_edge35, %9
  call void @__kmpc_barrier(ptr nonnull @2, i32 %.pre)
  ret void
}